target datalayout = "e-m:e-p270:32:32-p271:32:32-p272:64:64-i64:64-i128:128-f80:128-n8:16:32:64-S128"
target triple = "x86_64-pc-linux-gnu"

@.str.412 = private unnamed_addr constant [5 x i8] c"%02x\00", align 1
@get_key.key = internal global [33 x i8] zeroinitializer, align 16

; Function Attrs: null_pointer_is_valid sspstrong uwtable
define internal ptr @get_key(ptr noundef %0, i32 noundef %1) #0 {
  %3 = alloca ptr, align 8
  %4 = alloca i32, align 4
  %5 = alloca i32, align 4
  store ptr %0, ptr %3, align 8
  store i32 %1, ptr %4, align 4
  call void @llvm.lifetime.start.p0(i64 4, ptr %5) #12
  store i32 0, ptr %5, align 4
  br label %6

6:                                                ; preds = %31, %2
  %7 = load i32, ptr %5, align 4
  %8 = icmp slt i32 %7, 16
  br i1 %8, label %10, label %9

9:                                                ; preds = %6
  call void @llvm.lifetime.end.p0(i64 4, ptr %5) #12
  br label %34

10:                                               ; preds = %6
  %11 = load i32, ptr %5, align 4
  %12 = mul i32 %11, 2
  %13 = sext i32 %12 to i64
  %14 = getelementptr [33 x i8], ptr @get_key.key, i64 0, i64 %13
  %15 = load i32, ptr %5, align 4
  %16 = mul i32 %15, 2
  %17 = sub i32 33, %16
  %18 = sext i32 %17 to i64
  %19 = load i32, ptr %5, align 4
  %20 = mul i32 %19, 2
  %21 = sext i32 %20 to i64
  %22 = getelementptr [33 x i8], ptr @get_key.key, i64 0, i64 %21
  %23 = call i64 @llvm.objectsize.i64.p0(ptr %22, i1 false, i1 true, i1 true)
  %24 = load ptr, ptr %3, align 8
  %25 = load i32, ptr %4, align 4
  %26 = load i32, ptr %5, align 4
  %27 = add i32 %25, %26
  %28 = call zeroext i8 @tvb_get_uint8(ptr noundef %24, i32 noundef %27)
  %29 = zext i8 %28 to i32
  %30 = call i32 (ptr, i64, i32, i64, ptr, ...) @__snprintf_chk(ptr noundef %14, i64 noundef %18, i32 noundef 2, i64 noundef %23, ptr noundef @.str.412, i32 noundef %29)
  br label %31

31:                                               ; preds = %10
  %32 = load i32, ptr %5, align 4
  %33 = add i32 %32, 1
  store i32 %33, ptr %5, align 4
  br label %6, !llvm.loop !33

34:                                               ; preds = %9
  ret ptr @get_key.key
}