; Function Attrs: null_pointer_is_valid sspstrong uwtable
define internal fastcc void @get_key(ptr noundef %0, i32 noundef %1) unnamed_addr #0 {
  br label %4

3:                                                ; preds = %4
  ret void

4:                                                ; preds = %2, %4
  %indvars.iv = phi i64 [ 0, %2 ], [ %indvars.iv.next, %4 ]
  %5 = shl nuw nsw i64 %indvars.iv, 1
  %6 = getelementptr [33 x i8], ptr @get_key.key, i64 0, i64 %5
  %7 = sub nuw nsw i64 33, %5
  %8 = trunc nuw nsw i64 %indvars.iv to i32
  %9 = add i32 %1, %8
  %10 = tail call zeroext i8 @tvb_get_uint8(ptr noundef %0, i32 noundef %9)
  %11 = zext i8 %10 to i32
  %12 = tail call i32 (ptr, i64, i32, i64, ptr, ...) @__snprintf_chk(ptr noundef %6, i64 noundef %7, i32 noundef 2, i64 noundef %7, ptr noundef nonnull @.str.412, i32 noundef %11)
  %indvars.iv.next = add nuw nsw i64 %indvars.iv, 1
  %exitcond.not = icmp eq i64 %indvars.iv.next, 16
  br i1 %exitcond.not, label %3, label %4, !llvm.loop !29
}